; Function Attrs: nounwind uwtable
define internal fastcc range(i32 1, 3) i32 @exec_command_crosstabview(ptr noundef %0, i1 noundef zeroext %1) unnamed_addr #0 {
  br i1 %1, label %.preheader, label %6

.preheader:                                       ; preds = %2, %.preheader
  %indvars.iv = phi i64 [ %indvars.iv.next, %.preheader ], [ 0, %2 ]
  %3 = tail call ptr @psql_scan_slash_option(ptr noundef %0, i32 noundef 0, ptr noundef null, i1 noundef zeroext true) #16
  %4 = getelementptr inbounds nuw [4 x ptr], ptr getelementptr inbounds nuw (i8, ptr @pset, i64 280), i64 0, i64 %indvars.iv
  store ptr %3, ptr %4, align 8
  %indvars.iv.next = add nuw nsw i64 %indvars.iv, 1
  %exitcond.not = icmp eq i64 %indvars.iv.next, 4
  br i1 %exitcond.not, label %5, label %.preheader, !llvm.loop !16

5:                                                ; preds = %.preheader
  store i8 1, ptr getelementptr inbounds nuw (i8, ptr @pset, i64 272), align 8
  br label %ignore_slash_options.exit

6:                                                ; preds = %2
  %7 = tail call ptr @psql_scan_slash_option(ptr noundef %0, i32 noundef 0, ptr noundef null, i1 noundef zeroext false) #16
  %.not2.i = icmp eq ptr %7, null
  br i1 %.not2.i, label %ignore_slash_options.exit, label %.lr.ph.i

.lr.ph.i:                                         ; preds = %6, %.lr.ph.i
  %8 = phi ptr [ %9, %.lr.ph.i ], [ %7, %6 ]
  tail call void @free(ptr noundef nonnull %8) #16
  %9 = tail call ptr @psql_scan_slash_option(ptr noundef %0, i32 noundef 0, ptr noundef null, i1 noundef zeroext false) #16
  %.not.i = icmp eq ptr %9, null
  br i1 %.not.i, label %ignore_slash_options.exit, label %.lr.ph.i, !llvm.loop !10

ignore_slash_options.exit:                        ; preds = %.lr.ph.i, %6, %5
  %.06 = phi i32 [ 1, %5 ], [ 2, %6 ], [ 2, %.lr.ph.i ]
  ret i32 %.06
}